; Function Attrs: mustprogress nounwind uwtable
define hidden noundef ptr @_ZN22BaseCountedLoopEndNode4makeEP4NodeS1_ff9BasicType(ptr noundef %0, ptr noundef %1, float noundef %2, float noundef %3, i8 noundef zeroext %4) local_unnamed_addr #0 align 2 {
  %6 = icmp eq i8 %4, 10
  %7 = tail call align 8 ptr @llvm.threadlocal.address.p0(ptr align 8 @_ZN6Thread12_thr_currentE)
  %8 = load ptr, ptr %7, align 8
  %9 = getelementptr inbounds i8, ptr %8, i64 1808
  %10 = load ptr, ptr %9, align 8
  %11 = getelementptr inbounds i8, ptr %10, i64 128
  %12 = load ptr, ptr %11, align 8
  %13 = getelementptr inbounds i8, ptr %12, i64 728
  %14 = load ptr, ptr %13, align 8
  %15 = getelementptr inbounds i8, ptr %14, i64 40
  %16 = load ptr, ptr %15, align 8
  %17 = getelementptr inbounds i8, ptr %14, i64 32
  %18 = load ptr, ptr %17, align 8
  %19 = ptrtoint ptr %16 to i64
  %20 = ptrtoint ptr %18 to i64
  %21 = sub i64 %19, %20
  %.not.i.i.i = icmp ult i64 %21, 64
  br i1 %6, label %22, label %30

22:                                               ; preds = %5
  br i1 %.not.i.i.i, label %25, label %23

23:                                               ; preds = %22
  %24 = getelementptr inbounds i8, ptr %18, i64 64
  store ptr %24, ptr %17, align 8
  br label %_ZN4NodenwEm.exit

25:                                               ; preds = %22
  %26 = tail call noundef ptr @_ZN5Arena4growEmN17AllocFailStrategy13AllocFailEnumE(ptr noundef nonnull align 8 dereferenceable(48) %14, i64 noundef 64, i32 noundef 0) #15
  br label %_ZN4NodenwEm.exit

_ZN4NodenwEm.exit:                                ; preds = %23, %25
  %.0.i.i.i = phi ptr [ %18, %23 ], [ %26, %25 ]
  %27 = icmp eq ptr %.0.i.i.i, null
  br i1 %27, label %38, label %28

28:                                               ; preds = %_ZN4NodenwEm.exit
  tail call void @_ZN6IfNodeC2EP4NodeS1_ff(ptr noundef nonnull align 8 dereferenceable(60) %.0.i.i.i, ptr noundef %0, ptr noundef %1, float noundef %2, float noundef %3) #15
  %29 = getelementptr inbounds i8, ptr %.0.i.i.i, i64 44
  store ptr getelementptr inbounds inrange(-16, 216) (i8, ptr @_ZTV18CountedLoopEndNode, i64 16), ptr %.0.i.i.i, align 8
  store i32 117, ptr %29, align 4
  br label %38

30:                                               ; preds = %5
  br i1 %.not.i.i.i, label %33, label %31

31:                                               ; preds = %30
  %32 = getelementptr inbounds i8, ptr %18, i64 64
  store ptr %32, ptr %17, align 8
  br label %_ZN4NodenwEm.exit13

33:                                               ; preds = %30
  %34 = tail call noundef ptr @_ZN5Arena4growEmN17AllocFailStrategy13AllocFailEnumE(ptr noundef nonnull align 8 dereferenceable(48) %14, i64 noundef 64, i32 noundef 0) #15
  br label %_ZN4NodenwEm.exit13

_ZN4NodenwEm.exit13:                              ; preds = %31, %33
  %.0.i.i.i12 = phi ptr [ %18, %31 ], [ %34, %33 ]
  %35 = icmp eq ptr %.0.i.i.i12, null
  br i1 %35, label %38, label %36

36:                                               ; preds = %_ZN4NodenwEm.exit13
  tail call void @_ZN6IfNodeC2EP4NodeS1_ff(ptr noundef nonnull align 8 dereferenceable(60) %.0.i.i.i12, ptr noundef %0, ptr noundef %1, float noundef %2, float noundef %3) #15
  %37 = getelementptr inbounds i8, ptr %.0.i.i.i12, i64 44
  store ptr getelementptr inbounds inrange(-16, 216) (i8, ptr @_ZTV22LongCountedLoopEndNode, i64 16), ptr %.0.i.i.i12, align 8
  store i32 181, ptr %37, align 4
  br label %38

38:                                               ; preds = %_ZN4NodenwEm.exit13, %36, %_ZN4NodenwEm.exit, %28
  %.0 = phi ptr [ %.0.i.i.i, %28 ], [ null, %_ZN4NodenwEm.exit ], [ %.0.i.i.i12, %36 ], [ null, %_ZN4NodenwEm.exit13 ]
  ret ptr %.0
}